target datalayout = "e-m:e-p270:32:32-p271:32:32-p272:64:64-i64:64-i128:128-f80:128-n8:16:32:64-S128"
target triple = "x86_64-pc-linux-gnu"

%struct.PJconsts = type { ptr, ptr, ptr, ptr, ptr, ptr, ptr, ptr, ptr, ptr, ptr, ptr, i32, ptr, ptr, ptr, ptr, ptr, ptr, ptr, ptr, double, double, double, double, double, double, double, double, double, double, double, double, double, double, double, double, double, double, double, double, double, double, i32, i32, i32, i32, i32, i32, i32, i32, i32, i32, i32, ptr, ptr, ptr, ptr, ptr, ptr, double, double, double, double, double, double, double, double, double, double, double, i32, [7 x double], i32, ptr, ptr, double, double, i32, [4 x i8], %"class.std::shared_ptr", i8, double, i8, %"class.std::__cxx11::basic_string", %"class.std::__cxx11::basic_string", %"class.std::__cxx11::basic_string", i8, %"class.std::vector", i32, %"class.std::vector.3", i32, i8, i8, i8, ptr }
%"class.std::shared_ptr" = type { %"class.std::__shared_ptr" }
%"class.std::__shared_ptr" = type { ptr, %"class.std::__shared_count" }
%"class.std::__shared_count" = type { ptr }
%"class.std::__cxx11::basic_string" = type { %"struct.std::__cxx11::basic_string<char>::_Alloc_hider", i64, %union.anon }
%"struct.std::__cxx11::basic_string<char>::_Alloc_hider" = type { ptr }
%union.anon = type { i64, [8 x i8] }
%"class.std::vector" = type { %"struct.std::_Vector_base" }
%"struct.std::_Vector_base" = type { %"struct.std::_Vector_base<osgeo::proj::operation::GridDescription, std::allocator<osgeo::proj::operation::GridDescription>>::_Vector_impl" }
%"struct.std::_Vector_base<osgeo::proj::operation::GridDescription, std::allocator<osgeo::proj::operation::GridDescription>>::_Vector_impl" = type { %"struct.std::_Vector_base<osgeo::proj::operation::GridDescription, std::allocator<osgeo::proj::operation::GridDescription>>::_Vector_impl_data" }
%"struct.std::_Vector_base<osgeo::proj::operation::GridDescription, std::allocator<osgeo::proj::operation::GridDescription>>::_Vector_impl_data" = type { ptr, ptr, ptr }
%"class.std::vector.3" = type { %"struct.std::_Vector_base.4" }
%"struct.std::_Vector_base.4" = type { %"struct.std::_Vector_base<PJCoordOperation, std::allocator<PJCoordOperation>>::_Vector_impl" }
%"struct.std::_Vector_base<PJCoordOperation, std::allocator<PJCoordOperation>>::_Vector_impl" = type { %"struct.std::_Vector_base<PJCoordOperation, std::allocator<PJCoordOperation>>::_Vector_impl_data" }
%"struct.std::_Vector_base<PJCoordOperation, std::allocator<PJCoordOperation>>::_Vector_impl_data" = type { ptr, ptr, ptr }
%"struct.(anonymous namespace)::pj_ortho_data" = type { double, double, double, double, double, i32, double, double }
%struct.PJ_LP = type { double, double }
%struct.PJ_XY = type { double, double }

@.str.2 = private unnamed_addr constant [57 x i8] c"Coordinate (%.3f, %.3f) is on the unprojected hemisphere\00", align 1

; Function Attrs: mustprogress uwtable
define internal { double, double } @_ZL13forward_errorP8PJconsts5PJ_LP5PJ_XY(ptr noundef %0, double %1, double %2, double %3, double %4) #0 {
  %6 = alloca %struct.PJ_XY, align 8
  %7 = alloca %struct.PJ_LP, align 8
  %8 = alloca %struct.PJ_XY, align 8
  %9 = alloca ptr, align 8
  %10 = getelementptr inbounds nuw { double, double }, ptr %7, i32 0, i32 0
  store double %1, ptr %10, align 8
  %11 = getelementptr inbounds nuw { double, double }, ptr %7, i32 0, i32 1
  store double %2, ptr %11, align 8
  %12 = getelementptr inbounds nuw { double, double }, ptr %8, i32 0, i32 0
  store double %3, ptr %12, align 8
  %13 = getelementptr inbounds nuw { double, double }, ptr %8, i32 0, i32 1
  store double %4, ptr %13, align 8
  store ptr %0, ptr %9, align 8, !tbaa !3
  %14 = load ptr, ptr %9, align 8, !tbaa !3
  %15 = call i32 @proj_errno_set(ptr noundef %14, i32 noundef 2050)
  %16 = load ptr, ptr %9, align 8, !tbaa !3
  %17 = getelementptr inbounds nuw %struct.PJ_LP, ptr %7, i32 0, i32 0
  %18 = load double, ptr %17, align 8, !tbaa !63
  %19 = call double @proj_todeg(double noundef %18)
  %20 = getelementptr inbounds nuw %struct.PJ_LP, ptr %7, i32 0, i32 1
  %21 = load double, ptr %20, align 8, !tbaa !65
  %22 = call double @proj_todeg(double noundef %21)
  call void (ptr, ptr, ...) @_Z14proj_log_traceP8PJconstsPKcz(ptr noundef %16, ptr noundef @.str.2, double noundef %19, double noundef %22)
  call void @llvm.memcpy.p0.p0.i64(ptr align 8 %6, ptr align 8 %8, i64 16, i1 false), !tbaa.struct !70
  %23 = load { double, double }, ptr %6, align 8
  ret { double, double } %23
}

; Function Attrs: mustprogress uwtable
define internal { double, double } @_ZL15ortho_e_forward5PJ_LPP8PJconsts(double %0, double %1, ptr noundef %2) #0 {
  %4 = alloca %struct.PJ_XY, align 8
  %5 = alloca %struct.PJ_LP, align 8
  %6 = alloca ptr, align 8
  %7 = alloca %struct.PJ_XY, align 8
  %8 = alloca ptr, align 8
  %9 = alloca double, align 8
  %10 = alloca double, align 8
  %11 = alloca double, align 8
  %12 = alloca double, align 8
  %13 = alloca %struct.PJ_LP, align 8
  %14 = alloca %struct.PJ_XY, align 8
  %15 = alloca i32, align 4
  %16 = alloca double, align 8
  %17 = alloca double, align 8
  %18 = alloca double, align 8
  %19 = getelementptr inbounds nuw { double, double }, ptr %5, i32 0, i32 0
  store double %0, ptr %19, align 8
  %20 = getelementptr inbounds nuw { double, double }, ptr %5, i32 0, i32 1
  store double %1, ptr %20, align 8
  store ptr %2, ptr %6, align 8, !tbaa !3
  call void @llvm.lifetime.start.p0(i64 16, ptr %7) #8
  call void @llvm.lifetime.start.p0(i64 8, ptr %8) #8
  %21 = load ptr, ptr %6, align 8, !tbaa !3
  %22 = getelementptr inbounds nuw %struct.PJconsts, ptr %21, i32 0, i32 11
  %23 = load ptr, ptr %22, align 8, !tbaa !43
  store ptr %23, ptr %8, align 8, !tbaa !41
  call void @llvm.lifetime.start.p0(i64 8, ptr %9) #8
  %24 = getelementptr inbounds nuw %struct.PJ_LP, ptr %5, i32 0, i32 1
  %25 = load double, ptr %24, align 8, !tbaa !65
  %26 = call double @cos(double noundef %25) #8, !tbaa !45
  store double %26, ptr %9, align 8, !tbaa !60
  call void @llvm.lifetime.start.p0(i64 8, ptr %10) #8
  %27 = getelementptr inbounds nuw %struct.PJ_LP, ptr %5, i32 0, i32 1
  %28 = load double, ptr %27, align 8, !tbaa !65
  %29 = call double @sin(double noundef %28) #8, !tbaa !45
  store double %29, ptr %10, align 8, !tbaa !60
  call void @llvm.lifetime.start.p0(i64 8, ptr %11) #8
  %30 = getelementptr inbounds nuw %struct.PJ_LP, ptr %5, i32 0, i32 0
  %31 = load double, ptr %30, align 8, !tbaa !63
  %32 = call double @cos(double noundef %31) #8, !tbaa !45
  store double %32, ptr %11, align 8, !tbaa !60
  call void @llvm.lifetime.start.p0(i64 8, ptr %12) #8
  %33 = getelementptr inbounds nuw %struct.PJ_LP, ptr %5, i32 0, i32 0
  %34 = load double, ptr %33, align 8, !tbaa !63
  %35 = call double @sin(double noundef %34) #8, !tbaa !45
  store double %35, ptr %12, align 8, !tbaa !60
  %36 = load ptr, ptr %8, align 8, !tbaa !41
  %37 = getelementptr inbounds nuw %"struct.(anonymous namespace)::pj_ortho_data", ptr %36, i32 0, i32 0
  %38 = load double, ptr %37, align 8, !tbaa !46
  %39 = load double, ptr %10, align 8, !tbaa !60
  %40 = load ptr, ptr %8, align 8, !tbaa !41
  %41 = getelementptr inbounds nuw %"struct.(anonymous namespace)::pj_ortho_data", ptr %40, i32 0, i32 1
  %42 = load double, ptr %41, align 8, !tbaa !49
  %43 = load double, ptr %9, align 8, !tbaa !60
  %44 = fmul double %42, %43
  %45 = load double, ptr %11, align 8, !tbaa !60
  %46 = fmul double %44, %45
  %47 = call double @llvm.fmuladd.f64(double %38, double %39, double %46)
  %48 = fcmp olt double %47, -1.000000e-10
  br i1 %48, label %49, label %66

49:                                               ; preds = %3
  %50 = getelementptr inbounds nuw %struct.PJ_XY, ptr %7, i32 0, i32 0
  store double 0x7FF0000000000000, ptr %50, align 8, !tbaa !66
  %51 = getelementptr inbounds nuw %struct.PJ_XY, ptr %7, i32 0, i32 1
  store double 0x7FF0000000000000, ptr %51, align 8, !tbaa !68
  %52 = load ptr, ptr %6, align 8, !tbaa !3
  call void @llvm.memcpy.p0.p0.i64(ptr align 8 %13, ptr align 8 %5, i64 16, i1 false), !tbaa.struct !70
  call void @llvm.memcpy.p0.p0.i64(ptr align 8 %14, ptr align 8 %7, i64 16, i1 false), !tbaa.struct !70
  %53 = getelementptr inbounds nuw { double, double }, ptr %13, i32 0, i32 0
  %54 = load double, ptr %53, align 8
  %55 = getelementptr inbounds nuw { double, double }, ptr %13, i32 0, i32 1
  %56 = load double, ptr %55, align 8
  %57 = getelementptr inbounds nuw { double, double }, ptr %14, i32 0, i32 0
  %58 = load double, ptr %57, align 8
  %59 = getelementptr inbounds nuw { double, double }, ptr %14, i32 0, i32 1
  %60 = load double, ptr %59, align 8
  %61 = call { double, double } @_ZL13forward_errorP8PJconsts5PJ_LP5PJ_XY(ptr noundef %52, double %54, double %56, double %58, double %60)
  %62 = getelementptr inbounds nuw { double, double }, ptr %4, i32 0, i32 0
  %63 = extractvalue { double, double } %61, 0
  store double %63, ptr %62, align 8
  %64 = getelementptr inbounds nuw { double, double }, ptr %4, i32 0, i32 1
  %65 = extractvalue { double, double } %61, 1
  store double %65, ptr %64, align 8
  store i32 1, ptr %15, align 4
  br label %147

66:                                               ; preds = %3
  call void @llvm.lifetime.start.p0(i64 8, ptr %16) #8
  %67 = load ptr, ptr %6, align 8, !tbaa !3
  %68 = getelementptr inbounds nuw %struct.PJconsts, ptr %67, i32 0, i32 27
  %69 = load double, ptr %68, align 8, !tbaa !51
  %70 = load double, ptr %10, align 8, !tbaa !60
  %71 = fmul double %69, %70
  %72 = load double, ptr %10, align 8, !tbaa !60
  %73 = fneg double %71
  %74 = call double @llvm.fmuladd.f64(double %73, double %72, double 1.000000e+00)
  %75 = call double @sqrt(double noundef %74) #8, !tbaa !45
  %76 = fdiv double 1.000000e+00, %75
  store double %76, ptr %16, align 8, !tbaa !60
  call void @llvm.lifetime.start.p0(i64 8, ptr %17) #8
  %77 = load double, ptr %16, align 8, !tbaa !60
  %78 = load double, ptr %9, align 8, !tbaa !60
  %79 = fmul double %77, %78
  %80 = load double, ptr %12, align 8, !tbaa !60
  %81 = fmul double %79, %80
  store double %81, ptr %17, align 8, !tbaa !60
  call void @llvm.lifetime.start.p0(i64 8, ptr %18) #8
  %82 = load double, ptr %16, align 8, !tbaa !60
  %83 = load double, ptr %10, align 8, !tbaa !60
  %84 = load ptr, ptr %8, align 8, !tbaa !41
  %85 = getelementptr inbounds nuw %"struct.(anonymous namespace)::pj_ortho_data", ptr %84, i32 0, i32 1
  %86 = load double, ptr %85, align 8, !tbaa !49
  %87 = load double, ptr %9, align 8, !tbaa !60
  %88 = load ptr, ptr %8, align 8, !tbaa !41
  %89 = getelementptr inbounds nuw %"struct.(anonymous namespace)::pj_ortho_data", ptr %88, i32 0, i32 0
  %90 = load double, ptr %89, align 8, !tbaa !46
  %91 = fmul double %87, %90
  %92 = load double, ptr %11, align 8, !tbaa !60
  %93 = fmul double %91, %92
  %94 = fneg double %93
  %95 = call double @llvm.fmuladd.f64(double %83, double %86, double %94)
  %96 = load ptr, ptr %6, align 8, !tbaa !3
  %97 = getelementptr inbounds nuw %struct.PJconsts, ptr %96, i32 0, i32 27
  %98 = load double, ptr %97, align 8, !tbaa !51
  %99 = load ptr, ptr %8, align 8, !tbaa !41
  %100 = getelementptr inbounds nuw %"struct.(anonymous namespace)::pj_ortho_data", ptr %99, i32 0, i32 2
  %101 = load double, ptr %100, align 8, !tbaa !54
  %102 = load ptr, ptr %8, align 8, !tbaa !41
  %103 = getelementptr inbounds nuw %"struct.(anonymous namespace)::pj_ortho_data", ptr %102, i32 0, i32 0
  %104 = load double, ptr %103, align 8, !tbaa !46
  %105 = load double, ptr %16, align 8, !tbaa !60
  %106 = load double, ptr %10, align 8, !tbaa !60
  %107 = fmul double %105, %106
  %108 = fneg double %107
  %109 = call double @llvm.fmuladd.f64(double %101, double %104, double %108)
  %110 = fmul double %98, %109
  %111 = load ptr, ptr %8, align 8, !tbaa !41
  %112 = getelementptr inbounds nuw %"struct.(anonymous namespace)::pj_ortho_data", ptr %111, i32 0, i32 1
  %113 = load double, ptr %112, align 8, !tbaa !49
  %114 = fmul double %110, %113
  %115 = call double @llvm.fmuladd.f64(double %82, double %95, double %114)
  store double %115, ptr %18, align 8, !tbaa !60
  %116 = load ptr, ptr %8, align 8, !tbaa !41
  %117 = getelementptr inbounds nuw %"struct.(anonymous namespace)::pj_ortho_data", ptr %116, i32 0, i32 7
  %118 = load double, ptr %117, align 8, !tbaa !62
  %119 = load double, ptr %17, align 8, !tbaa !60
  %120 = load ptr, ptr %8, align 8, !tbaa !41
  %121 = getelementptr inbounds nuw %"struct.(anonymous namespace)::pj_ortho_data", ptr %120, i32 0, i32 6
  %122 = load double, ptr %121, align 8, !tbaa !61
  %123 = load double, ptr %18, align 8, !tbaa !60
  %124 = fmul double %122, %123
  %125 = fneg double %124
  %126 = call double @llvm.fmuladd.f64(double %118, double %119, double %125)
  %127 = load ptr, ptr %6, align 8, !tbaa !3
  %128 = getelementptr inbounds nuw %struct.PJconsts, ptr %127, i32 0, i32 66
  %129 = load double, ptr %128, align 8, !tbaa !69
  %130 = fmul double %126, %129
  %131 = getelementptr inbounds nuw %struct.PJ_XY, ptr %7, i32 0, i32 0
  store double %130, ptr %131, align 8, !tbaa !66
  %132 = load ptr, ptr %8, align 8, !tbaa !41
  %133 = getelementptr inbounds nuw %"struct.(anonymous namespace)::pj_ortho_data", ptr %132, i32 0, i32 6
  %134 = load double, ptr %133, align 8, !tbaa !61
  %135 = load double, ptr %17, align 8, !tbaa !60
  %136 = load ptr, ptr %8, align 8, !tbaa !41
  %137 = getelementptr inbounds nuw %"struct.(anonymous namespace)::pj_ortho_data", ptr %136, i32 0, i32 7
  %138 = load double, ptr %137, align 8, !tbaa !62
  %139 = load double, ptr %18, align 8, !tbaa !60
  %140 = fmul double %138, %139
  %141 = call double @llvm.fmuladd.f64(double %134, double %135, double %140)
  %142 = load ptr, ptr %6, align 8, !tbaa !3
  %143 = getelementptr inbounds nuw %struct.PJconsts, ptr %142, i32 0, i32 66
  %144 = load double, ptr %143, align 8, !tbaa !69
  %145 = fmul double %141, %144
  %146 = getelementptr inbounds nuw %struct.PJ_XY, ptr %7, i32 0, i32 1
  store double %145, ptr %146, align 8, !tbaa !68
  call void @llvm.memcpy.p0.p0.i64(ptr align 8 %4, ptr align 8 %7, i64 16, i1 false), !tbaa.struct !70
  store i32 1, ptr %15, align 4
  call void @llvm.lifetime.end.p0(i64 8, ptr %18) #8
  call void @llvm.lifetime.end.p0(i64 8, ptr %17) #8
  call void @llvm.lifetime.end.p0(i64 8, ptr %16) #8
  br label %147

147:                                              ; preds = %66, %49
  call void @llvm.lifetime.end.p0(i64 8, ptr %12) #8
  call void @llvm.lifetime.end.p0(i64 8, ptr %11) #8
  call void @llvm.lifetime.end.p0(i64 8, ptr %10) #8
  call void @llvm.lifetime.end.p0(i64 8, ptr %9) #8
  call void @llvm.lifetime.end.p0(i64 8, ptr %8) #8
  call void @llvm.lifetime.end.p0(i64 16, ptr %7) #8
  %148 = load { double, double }, ptr %4, align 8
  ret { double, double } %148
}