; Function Attrs: mustprogress uwtable
define internal { double, double } @_ZL15ortho_e_forward5PJ_LPP8PJconsts(double %0, double %1, ptr noundef %2) #0 {
  %4 = getelementptr inbounds nuw i8, ptr %2, i64 88
  %5 = load ptr, ptr %4, align 8, !tbaa !40
  %6 = tail call double @cos(double noundef %1) #6, !tbaa !42
  %7 = tail call double @sin(double noundef %1) #6, !tbaa !42
  %8 = tail call double @cos(double noundef %0) #6, !tbaa !42
  %9 = tail call double @sin(double noundef %0) #6, !tbaa !42
  %10 = load double, ptr %5, align 8, !tbaa !43
  %11 = getelementptr inbounds nuw i8, ptr %5, i64 8
  %12 = load double, ptr %11, align 8, !tbaa !46
  %13 = fmul double %6, %12
  %14 = fmul double %8, %13
  %15 = tail call double @llvm.fmuladd.f64(double %10, double %7, double %14)
  %16 = fcmp olt double %15, -1.000000e-10
  br i1 %16, label %17, label %21

17:                                               ; preds = %3
  %18 = tail call i32 @proj_errno_set(ptr noundef nonnull %2, i32 noundef 2050)
  %19 = tail call double @proj_todeg(double noundef %0)
  %20 = tail call double @proj_todeg(double noundef %1)
  tail call void (ptr, ptr, ...) @_Z14proj_log_traceP8PJconstsPKcz(ptr noundef nonnull %2, ptr noundef nonnull @.str.2, double noundef %19, double noundef %20)
  br label %55

21:                                               ; preds = %3
  %22 = getelementptr inbounds nuw i8, ptr %2, i64 216
  %23 = load double, ptr %22, align 8, !tbaa !48
  %24 = fneg double %7
  %25 = fmul double %23, %24
  %26 = tail call double @llvm.fmuladd.f64(double %25, double %7, double 1.000000e+00)
  %27 = tail call double @sqrt(double noundef %26) #6, !tbaa !42
  %28 = fdiv double 1.000000e+00, %27
  %29 = fmul double %6, %28
  %30 = fmul double %9, %29
  %31 = fmul double %6, %10
  %32 = fneg double %8
  %33 = fmul double %31, %32
  %34 = tail call double @llvm.fmuladd.f64(double %7, double %12, double %33)
  %35 = getelementptr inbounds nuw i8, ptr %5, i64 16
  %36 = load double, ptr %35, align 8, !tbaa !49
  %37 = fmul double %28, %24
  %38 = tail call double @llvm.fmuladd.f64(double %36, double %10, double %37)
  %39 = fmul double %23, %38
  %40 = fmul double %12, %39
  %41 = tail call double @llvm.fmuladd.f64(double %28, double %34, double %40)
  %42 = getelementptr inbounds nuw i8, ptr %5, i64 56
  %43 = load double, ptr %42, align 8, !tbaa !57
  %44 = getelementptr inbounds nuw i8, ptr %5, i64 48
  %45 = load double, ptr %44, align 8, !tbaa !56
  %46 = fneg double %41
  %47 = fmul double %45, %46
  %48 = tail call double @llvm.fmuladd.f64(double %43, double %30, double %47)
  %49 = getelementptr inbounds nuw i8, ptr %2, i64 488
  %50 = load double, ptr %49, align 8, !tbaa !58
  %51 = fmul double %50, %48
  %52 = fmul double %43, %41
  %53 = tail call double @llvm.fmuladd.f64(double %45, double %30, double %52)
  %54 = fmul double %50, %53
  br label %55

55:                                               ; preds = %21, %17
  %.sroa.041.0 = phi double [ 0x7FF0000000000000, %17 ], [ %51, %21 ]
  %.sroa.3.0 = phi double [ 0x7FF0000000000000, %17 ], [ %54, %21 ]
  %.fca.0.insert = insertvalue { double, double } poison, double %.sroa.041.0, 0
  %.fca.1.insert = insertvalue { double, double } %.fca.0.insert, double %.sroa.3.0, 1
  ret { double, double } %.fca.1.insert
}